; Function Attrs: mustprogress nounwind uwtable
define internal fastcc void @_ZN12_GLOBAL__N_114ODRTypeVisitor26VisitInjectedClassNameTypeEPKN5clang21InjectedClassNameTypeE(ptr noundef nonnull readonly align 8 captures(none) dereferenceable(16) %0, ptr noundef nonnull %1) unnamed_addr #0 align 2 {
  %3 = tail call noundef ptr @_ZNK5clang21InjectedClassNameType7getDeclEv(ptr noundef nonnull align 16 dereferenceable(40) %1) #14
  %4 = getelementptr inbounds nuw i8, ptr %0, i64 8
  %5 = load ptr, ptr %4, align 8
  %6 = icmp ne ptr %3, null
  %7 = getelementptr inbounds nuw i8, ptr %5, i64 24
  %8 = tail call noundef i64 @_ZNK4llvm15SmallVectorBaseImE4sizeEv(ptr noundef nonnull align 8 dereferenceable(24) %7) #14
  %9 = add i64 %8, 1
  %10 = tail call noundef i64 @_ZNK4llvm15SmallVectorBaseImE8capacityEv(ptr noundef nonnull align 8 dereferenceable(24) %7) #14
  %.not.i.i.i.i = icmp ugt i64 %9, %10
  br i1 %.not.i.i.i.i, label %11, label %_ZN5clang7ODRHash10AddBooleanEb.exit

11:                                               ; preds = %2
  %12 = getelementptr inbounds nuw i8, ptr %5, i64 48
  tail call void @_ZN4llvm15SmallVectorBaseImE8grow_podEPvmm(ptr noundef nonnull align 8 dereferenceable(24) %7, ptr noundef nonnull %12, i64 noundef %9, i64 noundef 1) #14
  br label %_ZN5clang7ODRHash10AddBooleanEb.exit

_ZN5clang7ODRHash10AddBooleanEb.exit:             ; preds = %2, %11
  %13 = zext i1 %6 to i8
  %14 = load ptr, ptr %7, align 8
  %15 = tail call noundef i64 @_ZNK4llvm15SmallVectorBaseImE4sizeEv(ptr noundef nonnull align 8 dereferenceable(24) %7) #14
  %16 = getelementptr inbounds i8, ptr %14, i64 %15
  store i8 %13, ptr %16, align 1
  %17 = tail call noundef i64 @_ZNK4llvm15SmallVectorBaseImE4sizeEv(ptr noundef nonnull align 8 dereferenceable(24) %7) #14
  %18 = add i64 %17, 1
  tail call void @_ZN4llvm15SmallVectorBaseImE8set_sizeEm(ptr noundef nonnull align 8 dereferenceable(24) %7, i64 noundef %18) #14
  br i1 %6, label %19, label %_ZN12_GLOBAL__N_114ODRTypeVisitor7AddDeclEPKN5clang4DeclE.exit

19:                                               ; preds = %_ZN5clang7ODRHash10AddBooleanEb.exit
  %20 = load ptr, ptr %4, align 8
  tail call void @_ZN5clang7ODRHash7AddDeclEPKNS_4DeclE(ptr noundef nonnull align 8 dereferenceable(320) %20, ptr noundef nonnull %3)
  br label %_ZN12_GLOBAL__N_114ODRTypeVisitor7AddDeclEPKN5clang4DeclE.exit

_ZN12_GLOBAL__N_114ODRTypeVisitor7AddDeclEPKN5clang4DeclE.exit: ; preds = %_ZN5clang7ODRHash10AddBooleanEb.exit, %19
  ret void
}